target datalayout = "e-m:e-p270:32:32-p271:32:32-p272:64:64-i64:64-i128:128-f80:128-n8:16:32:64-S128"
target triple = "x86_64-pc-linux-gnu"

%struct.ZStoreBarrierEntry = type { ptr, i64 }
%class.ZStoreBarrierBuffer = type { [32 x %struct.ZStoreBarrierEntry], i64, i64, %class.ZLock, [32 x i64], i64 }
%class.ZLock = type { %class.PlatformMutex }
%class.PlatformMutex = type { %union.pthread_mutex_t }
%union.pthread_mutex_t = type { %struct.__pthread_mutex_s }
%struct.__pthread_mutex_s = type { i32, i32, i32, i32, i32, i16, i16, %struct.__pthread_internal_list }
%struct.__pthread_internal_list = type { ptr, ptr }

@ZBufferStoreBarriers = external global i8, align 1

; Function Attrs: mustprogress nounwind uwtable
define linkonce_odr hidden void @_ZN5ZLockC2Ev(ptr noundef nonnull align 8 dereferenceable(40) %0) unnamed_addr #1 comdat align 2 {
  %2 = alloca ptr, align 8
  store ptr %0, ptr %2, align 8
  %3 = load ptr, ptr %2, align 8
  %4 = getelementptr inbounds %class.ZLock, ptr %3, i32 0, i32 0
  call void @_ZN13PlatformMutexC1Ev(ptr noundef nonnull align 8 dereferenceable(40) %4)
  ret void
}

; Function Attrs: mustprogress nounwind uwtable
define hidden void @_ZN19ZStoreBarrierBufferC2Ev(ptr noundef nonnull align 8 dereferenceable(832) %0) unnamed_addr #1 align 2 {
  %2 = alloca ptr, align 8
  store ptr %0, ptr %2, align 8
  %3 = load ptr, ptr %2, align 8
  %4 = getelementptr inbounds %class.ZStoreBarrierBuffer, ptr %3, i32 0, i32 0
  call void @llvm.memset.p0.i64(ptr align 8 %4, i8 0, i64 512, i1 false)
  %5 = getelementptr inbounds %class.ZStoreBarrierBuffer, ptr %3, i32 0, i32 1
  store i64 0, ptr %5, align 8
  %6 = getelementptr inbounds %class.ZStoreBarrierBuffer, ptr %3, i32 0, i32 2
  store i64 0, ptr %6, align 8
  %7 = getelementptr inbounds %class.ZStoreBarrierBuffer, ptr %3, i32 0, i32 3
  call void @llvm.memset.p0.i64(ptr align 8 %7, i8 0, i64 40, i1 false)
  call void @_ZN5ZLockC2Ev(ptr noundef nonnull align 8 dereferenceable(40) %7)
  %8 = getelementptr inbounds %class.ZStoreBarrierBuffer, ptr %3, i32 0, i32 4
  call void @llvm.memset.p0.i64(ptr align 8 %8, i8 0, i64 256, i1 false)
  %9 = getelementptr inbounds %class.ZStoreBarrierBuffer, ptr %3, i32 0, i32 5
  %10 = load i8, ptr @ZBufferStoreBarriers, align 1
  %11 = trunc i8 %10 to i1
  %12 = select i1 %11, i64 512, i64 0
  store i64 %12, ptr %9, align 8
  ret void
}