; Function Attrs: mustprogress nounwind uwtable
define hidden void @_ZN19ZStoreBarrierBufferC2Ev(ptr noundef nonnull align 8 dereferenceable(832) %0) unnamed_addr #1 align 2 {
  %2 = getelementptr inbounds i8, ptr %0, i64 528
  tail call void @llvm.memset.p0.i64(ptr noundef nonnull align 8 dereferenceable(568) %0, i8 0, i64 568, i1 false)
  tail call void @_ZN13PlatformMutexC1Ev(ptr noundef nonnull align 8 dereferenceable(40) %2) #13
  %3 = getelementptr inbounds i8, ptr %0, i64 568
  tail call void @llvm.memset.p0.i64(ptr noundef nonnull align 8 dereferenceable(256) %3, i8 0, i64 256, i1 false)
  %4 = getelementptr inbounds i8, ptr %0, i64 824
  %5 = load i8, ptr @ZBufferStoreBarriers, align 1
  %6 = trunc i8 %5 to i1
  %7 = select i1 %6, i64 512, i64 0
  store i64 %7, ptr %4, align 8
  ret void
}